target datalayout = "e-m:e-p270:32:32-p271:32:32-p272:64:64-i64:64-i128:128-f80:128-n8:16:32:64-S128"
target triple = "x86_64-pc-linux-gnu"

%class.FileIO = type <{ %struct.duFileIO, ptr, i32, [4 x i8] }>
%struct.duFileIO = type { ptr }

@.str.1 = private unnamed_addr constant [3 x i8] c"wb\00", align 1

; Function Attrs: mustprogress uwtable
define dso_local noundef zeroext i1 @_ZN6FileIO12openForWriteEPKc(ptr noundef nonnull align 8 dereferenceable(20) %0, ptr noundef %1) #0 align 2 {
  %3 = alloca i1, align 1
  %4 = alloca ptr, align 8
  %5 = alloca ptr, align 8
  store ptr %0, ptr %4, align 8
  store ptr %1, ptr %5, align 8
  %6 = load ptr, ptr %4, align 8
  %7 = getelementptr inbounds %class.FileIO, ptr %6, i32 0, i32 1
  %8 = load ptr, ptr %7, align 8
  %9 = icmp ne ptr %8, null
  br i1 %9, label %10, label %11

10:                                               ; preds = %2
  store i1 false, ptr %3, align 1
  br label %21

11:                                               ; preds = %2
  %12 = load ptr, ptr %5, align 8
  %13 = call noalias ptr @fopen(ptr noundef %12, ptr noundef @.str.1)
  %14 = getelementptr inbounds %class.FileIO, ptr %6, i32 0, i32 1
  store ptr %13, ptr %14, align 8
  %15 = getelementptr inbounds %class.FileIO, ptr %6, i32 0, i32 1
  %16 = load ptr, ptr %15, align 8
  %17 = icmp ne ptr %16, null
  br i1 %17, label %19, label %18

18:                                               ; preds = %11
  store i1 false, ptr %3, align 1
  br label %21

19:                                               ; preds = %11
  %20 = getelementptr inbounds %class.FileIO, ptr %6, i32 0, i32 2
  store i32 1, ptr %20, align 8
  store i1 true, ptr %3, align 1
  br label %21

21:                                               ; preds = %19, %18, %10
  %22 = load i1, ptr %3, align 1
  ret i1 %22
}